; Function Attrs: mustprogress uwtable
define internal void @_ZN11opencv_test12_GLOBAL__N_131Tracking_Boosting_Boosting_Test8TestBodyEv(ptr noundef nonnull align 8 dereferenceable(257) %0) unnamed_addr #4 align 2 personality ptr @__gxx_personality_v0 {
  %2 = alloca %"class.cv::utils::trace::details::Region", align 8
  store i8 1, ptr @_ZN11opencv_test30required_opencv_test_namespaceE, align 1, !tbaa !85
  call void @llvm.lifetime.start.p0(i64 16, ptr nonnull %2) #28
  call void @_ZN2cv5utils5trace7details6RegionC1ERKNS3_21LocationStaticStorageE(ptr noundef nonnull align 8 dereferenceable(12) %2, ptr noundef nonnull align 8 dereferenceable(32) @_ZZN11opencv_test12_GLOBAL__N_131Tracking_Boosting_Boosting_Test8TestBodyEvE24__cv_trace_location_fn90)
  invoke void @_ZN6cvtest9testSetUpEv()
          to label %3 unwind label %4

3:                                                ; preds = %1
  invoke void @_ZN4perf8TestBase15RunPerfTestBodyEv(ptr noundef nonnull align 8 dereferenceable(248) %0)
          to label %17 unwind label %4

4:                                                ; preds = %3, %1
  %5 = landingpad { ptr, i32 }
          cleanup
          catch ptr @_ZTIN6cvtest7details21SkipTestExceptionBaseE
  %6 = extractvalue { ptr, i32 } %5, 1
  %7 = call i32 @llvm.eh.typeid.for.p0(ptr nonnull @_ZTIN6cvtest7details21SkipTestExceptionBaseE) #28
  %8 = icmp eq i32 %6, %7
  br i1 %8, label %9, label %29

9:                                                ; preds = %4
  %10 = extractvalue { ptr, i32 } %5, 0
  %11 = call ptr @__cxa_begin_catch(ptr %10) #28
  %12 = load ptr, ptr %11, align 8, !tbaa !12
  %13 = getelementptr inbounds nuw i8, ptr %12, i64 16
  %14 = load ptr, ptr %13, align 8
  %15 = call noundef ptr %14(ptr noundef nonnull align 8 dereferenceable(148) %11) #28
  %16 = call i32 (ptr, ...) @printf(ptr noundef nonnull dereferenceable(1) @.str.34, ptr noundef %15)
  invoke void @__cxa_end_catch()
          to label %17 unwind label %25

17:                                               ; preds = %9, %3
  invoke void @_ZN6cvtest12testTearDownEv()
          to label %18 unwind label %27

18:                                               ; preds = %17
  %19 = getelementptr inbounds nuw i8, ptr %2, i64 8
  %20 = load i32, ptr %19, align 8, !tbaa !86
  %.not.i = icmp eq i32 %20, 0
  br i1 %.not.i, label %_ZN2cv5utils5trace7details6RegionD2Ev.exit, label %21

21:                                               ; preds = %18
  invoke void @_ZN2cv5utils5trace7details6Region7destroyEv(ptr noundef nonnull align 8 dereferenceable(12) %2)
          to label %_ZN2cv5utils5trace7details6RegionD2Ev.exit unwind label %22

22:                                               ; preds = %21
  %23 = landingpad { ptr, i32 }
          catch ptr null
  %24 = extractvalue { ptr, i32 } %23, 0
  call void @__clang_call_terminate(ptr %24) #30
  unreachable

_ZN2cv5utils5trace7details6RegionD2Ev.exit:       ; preds = %18, %21
  call void @llvm.lifetime.end.p0(i64 16, ptr nonnull %2) #28
  ret void

25:                                               ; preds = %9
  %26 = landingpad { ptr, i32 }
          cleanup
  br label %29

27:                                               ; preds = %17
  %28 = landingpad { ptr, i32 }
          cleanup
  br label %29

29:                                               ; preds = %27, %25, %4
  %.merged = phi { ptr, i32 } [ %28, %27 ], [ %26, %25 ], [ %5, %4 ]
  call void @_ZN2cv5utils5trace7details6RegionD2Ev(ptr noundef nonnull align 8 dereferenceable(12) %2) #28
  call void @llvm.lifetime.end.p0(i64 16, ptr nonnull %2) #28
  resume { ptr, i32 } %.merged
}